target datalayout = "e-m:e-p270:32:32-p271:32:32-p272:64:64-i64:64-i128:128-f80:128-n8:16:32:64-S128"
target triple = "x86_64-pc-linux-gnu"

%struct.rb_symbols_t = type { i32, ptr, i64, i64 }
%struct.RSymbol = type { %struct.RBasic, i64, i64, i64 }
%struct.RBasic = type { i64, i64 }

@rb_cSymbol = external global i64, align 8

; Function Attrs: inlinehint nounwind sspstrong willreturn memory(none) uwtable
define internal zeroext i1 @RB_IMMEDIATE_P(i64 noundef %0) #6 {
  %2 = alloca i64, align 8
  store i64 %0, ptr %2, align 8, !tbaa !11
  %3 = load i64, ptr %2, align 8, !tbaa !11
  %4 = and i64 %3, 7
  %5 = icmp ne i64 %4, 0
  ret i1 %5
}

; Function Attrs: inlinehint nounwind sspstrong willreturn memory(read) uwtable
define internal i32 @RB_BUILTIN_TYPE(i64 noundef %0) #8 {
  %2 = alloca i64, align 8
  %3 = alloca i64, align 8
  store i64 %0, ptr %2, align 8, !tbaa !11
  call void @llvm.lifetime.start.p0(i64 8, ptr %3) #24
  %4 = load i64, ptr %2, align 8, !tbaa !11
  %5 = inttoptr i64 %4 to ptr
  %6 = getelementptr inbounds nuw %struct.RBasic, ptr %5, i32 0, i32 0
  %7 = load i64, ptr %6, align 8, !tbaa !93
  %8 = and i64 %7, 31
  store i64 %8, ptr %3, align 8, !tbaa !11
  %9 = load i64, ptr %3, align 8, !tbaa !11
  %10 = trunc i64 %9 to i32
  call void @llvm.lifetime.end.p0(i64 8, ptr %3) #24
  ret i32 %10
}

; Function Attrs: inlinehint nounwind sspstrong willreturn memory(none) uwtable
define internal zeroext i1 @RB_SPECIAL_CONST_P(i64 noundef %0) #6 {
  %2 = alloca i64, align 8
  store i64 %0, ptr %2, align 8, !tbaa !11
  %3 = load i64, ptr %2, align 8, !tbaa !11
  %4 = icmp eq i64 %3, 0
  br i1 %4, label %8, label %5

5:                                                ; preds = %1
  %6 = load i64, ptr %2, align 8, !tbaa !11
  %7 = call zeroext i1 @RB_IMMEDIATE_P(i64 noundef %6) #25
  br label %8

8:                                                ; preds = %5, %1
  %9 = phi i1 [ true, %1 ], [ %7, %5 ]
  ret i1 %9
}

; Function Attrs: inlinehint nounwind sspstrong uwtable
define internal i64 @dsymbol_check(ptr noundef %0, i64 noundef %1) #4 {
  %3 = alloca i64, align 8
  %4 = alloca ptr, align 8
  %5 = alloca i64, align 8
  %6 = alloca i64, align 8
  %7 = alloca i64, align 8
  store ptr %0, ptr %4, align 8, !tbaa !7
  store i64 %1, ptr %5, align 8, !tbaa !11
  %8 = load i64, ptr %5, align 8, !tbaa !11
  %9 = call i32 @rb_objspace_garbage_object_p(i64 noundef %8)
  %10 = icmp ne i32 %9, 0
  %11 = xor i1 %10, true
  %12 = xor i1 %11, true
  %13 = zext i1 %12 to i32
  %14 = sext i32 %13 to i64
  %15 = call i64 @llvm.expect.i64(i64 %14, i64 0)
  %16 = icmp ne i64 %15, 0
  br i1 %16, label %17, label %40

17:                                               ; preds = %2
  call void @llvm.lifetime.start.p0(i64 8, ptr %6) #24
  %18 = load i64, ptr %5, align 8, !tbaa !11
  %19 = inttoptr i64 %18 to ptr
  %20 = getelementptr inbounds nuw %struct.RSymbol, ptr %19, i32 0, i32 2
  %21 = load i64, ptr %20, align 8, !tbaa !32
  store i64 %21, ptr %6, align 8, !tbaa !11
  call void @llvm.lifetime.start.p0(i64 8, ptr %7) #24
  %22 = load i64, ptr %5, align 8, !tbaa !11
  %23 = inttoptr i64 %22 to ptr
  %24 = getelementptr inbounds nuw %struct.RSymbol, ptr %23, i32 0, i32 3
  %25 = load i64, ptr %24, align 8, !tbaa !29
  %26 = and i64 %25, 14
  store i64 %26, ptr %7, align 8, !tbaa !11
  %27 = load i64, ptr %5, align 8, !tbaa !11
  %28 = inttoptr i64 %27 to ptr
  %29 = getelementptr inbounds nuw %struct.RSymbol, ptr %28, i32 0, i32 2
  store i64 0, ptr %29, align 8, !tbaa !32
  %30 = load ptr, ptr %4, align 8, !tbaa !7
  %31 = load i64, ptr %6, align 8, !tbaa !11
  %32 = load i64, ptr %5, align 8, !tbaa !11
  call void @unregister_sym(ptr noundef %30, i64 noundef %31, i64 noundef %32)
  %33 = load ptr, ptr %4, align 8, !tbaa !7
  %34 = load i64, ptr @rb_cSymbol, align 8, !tbaa !11
  %35 = load i64, ptr %6, align 8, !tbaa !11
  %36 = load i64, ptr %6, align 8, !tbaa !11
  %37 = call ptr @rb_enc_get(i64 noundef %36)
  %38 = load i64, ptr %7, align 8, !tbaa !11
  %39 = call i64 @dsymbol_alloc(ptr noundef %33, i64 noundef %34, i64 noundef %35, ptr noundef %37, i64 noundef %38)
  store i64 %39, ptr %3, align 8
  call void @llvm.lifetime.end.p0(i64 8, ptr %7) #24
  call void @llvm.lifetime.end.p0(i64 8, ptr %6) #24
  br label %42

40:                                               ; preds = %2
  %41 = load i64, ptr %5, align 8, !tbaa !11
  store i64 %41, ptr %3, align 8
  br label %42

42:                                               ; preds = %40, %17
  %43 = load i64, ptr %3, align 8
  ret i64 %43
}

; Function Attrs: inlinehint nounwind sspstrong willreturn memory(read) uwtable
define internal zeroext i1 @RB_DYNAMIC_SYM_P(i64 noundef %0) #8 {
  %2 = alloca i1, align 1
  %3 = alloca i64, align 8
  store i64 %0, ptr %3, align 8, !tbaa !11
  %4 = load i64, ptr %3, align 8, !tbaa !11
  %5 = call zeroext i1 @RB_SPECIAL_CONST_P(i64 noundef %4) #25
  br i1 %5, label %6, label %7

6:                                                ; preds = %1
  store i1 false, ptr %2, align 1
  br label %11

7:                                                ; preds = %1
  %8 = load i64, ptr %3, align 8, !tbaa !11
  %9 = call i32 @RB_BUILTIN_TYPE(i64 noundef %8) #27
  %10 = icmp eq i32 %9, 20
  store i1 %10, ptr %2, align 1
  br label %11

11:                                               ; preds = %7, %6
  %12 = load i1, ptr %2, align 1
  ret i1 %12
}

; Function Attrs: nounwind sspstrong uwtable
define internal i64 @lookup_str_sym_with_lock(ptr noundef %0, i64 noundef %1) #0 {
  %3 = alloca i64, align 8
  %4 = alloca ptr, align 8
  %5 = alloca i64, align 8
  %6 = alloca i64, align 8
  %7 = alloca i64, align 8
  %8 = alloca i32, align 4
  store ptr %0, ptr %4, align 8, !tbaa !7
  store i64 %1, ptr %5, align 8, !tbaa !11
  call void @llvm.lifetime.start.p0(i64 8, ptr %6) #24
  %9 = load ptr, ptr %4, align 8, !tbaa !7
  %10 = getelementptr inbounds nuw %struct.rb_symbols_t, ptr %9, i32 0, i32 1
  %11 = load ptr, ptr %10, align 8, !tbaa !17
  %12 = load i64, ptr %5, align 8, !tbaa !11
  %13 = call i32 @rb_st_lookup(ptr noundef %11, i64 noundef %12, ptr noundef %6)
  %14 = icmp ne i32 %13, 0
  br i1 %14, label %15, label %25

15:                                               ; preds = %2
  call void @llvm.lifetime.start.p0(i64 8, ptr %7) #24
  %16 = load i64, ptr %6, align 8, !tbaa !11
  store i64 %16, ptr %7, align 8, !tbaa !11
  %17 = load i64, ptr %7, align 8, !tbaa !11
  %18 = call zeroext i1 @RB_DYNAMIC_SYM_P(i64 noundef %17) #27
  br i1 %18, label %19, label %23

19:                                               ; preds = %15
  %20 = load ptr, ptr %4, align 8, !tbaa !7
  %21 = load i64, ptr %7, align 8, !tbaa !11
  %22 = call i64 @dsymbol_check(ptr noundef %20, i64 noundef %21)
  store i64 %22, ptr %7, align 8, !tbaa !11
  br label %23

23:                                               ; preds = %19, %15
  %24 = load i64, ptr %7, align 8, !tbaa !11
  store i64 %24, ptr %3, align 8
  store i32 1, ptr %8, align 4
  call void @llvm.lifetime.end.p0(i64 8, ptr %7) #24
  br label %26

25:                                               ; preds = %2
  store i64 0, ptr %3, align 8
  store i32 1, ptr %8, align 4
  br label %26

26:                                               ; preds = %25, %23
  call void @llvm.lifetime.end.p0(i64 8, ptr %6) #24
  %27 = load i64, ptr %3, align 8
  ret i64 %27
}