; Function Attrs: nounwind sspstrong uwtable
define internal fastcc i64 @lookup_str_sym_with_lock(i64 noundef %0) unnamed_addr #0 {
  %2 = alloca i64, align 8
  call void @llvm.lifetime.start.p0(i64 8, ptr nonnull %2) #19
  %3 = load ptr, ptr getelementptr inbounds nuw (i8, ptr @ruby_global_symbols, i64 8), align 8, !tbaa !15
  %4 = call i32 @rb_st_lookup(ptr noundef %3, i64 noundef %0, ptr noundef nonnull %2) #19
  %.not = icmp eq i32 %4, 0
  br i1 %.not, label %dsymbol_check.exit, label %5

5:                                                ; preds = %1
  %6 = load i64, ptr %2, align 8, !tbaa !32
  %7 = icmp eq i64 %6, 0
  %8 = and i64 %6, 7
  %9 = icmp ne i64 %8, 0
  %10 = or i1 %7, %9
  br i1 %10, label %dsymbol_check.exit, label %RB_DYNAMIC_SYM_P.exit

RB_DYNAMIC_SYM_P.exit:                            ; preds = %5
  %11 = inttoptr i64 %6 to ptr
  %12 = load i64, ptr %11, align 8, !tbaa !26
  %13 = and i64 %12, 31
  %14 = icmp eq i64 %13, 20
  br i1 %14, label %15, label %dsymbol_check.exit

15:                                               ; preds = %RB_DYNAMIC_SYM_P.exit
  %16 = call i32 @rb_objspace_garbage_object_p(i64 noundef %6) #19
  %.not.i = icmp eq i32 %16, 0
  br i1 %.not.i, label %dsymbol_check.exit, label %17, !prof !28

17:                                               ; preds = %15
  %18 = getelementptr inbounds nuw i8, ptr %11, i64 24
  %19 = load i64, ptr %18, align 8, !tbaa !29
  %20 = getelementptr inbounds nuw i8, ptr %11, i64 32
  %21 = load i64, ptr %20, align 8, !tbaa !31
  %22 = and i64 %21, 14
  store i64 0, ptr %18, align 8, !tbaa !29
  call fastcc void @unregister_sym(i64 noundef %19, i64 noundef %6)
  %23 = load i64, ptr @rb_cSymbol, align 8, !tbaa !32
  %24 = call ptr @rb_enc_get(i64 noundef %19) #19
  %25 = call fastcc i64 @dsymbol_alloc(i64 noundef %23, i64 noundef %19, ptr noundef %24, i64 noundef %22)
  br label %dsymbol_check.exit

dsymbol_check.exit:                               ; preds = %5, %17, %15, %1, %RB_DYNAMIC_SYM_P.exit
  %.06 = phi i64 [ %6, %RB_DYNAMIC_SYM_P.exit ], [ 0, %1 ], [ %25, %17 ], [ %6, %15 ], [ %6, %5 ]
  call void @llvm.lifetime.end.p0(i64 8, ptr nonnull %2) #19
  ret i64 %.06
}